; Function Attrs: mustprogress uwtable
define internal fastcc void @_ZNK12rewriter_tplIN12_GLOBAL__N_120elim_small_bv_tactic6rw_cfgEE15check_max_stepsEv(ptr nocapture nonnull readonly %this.144.val, i32 %this.152.val) unnamed_addr #3 align 2 personality ptr @__gxx_personality_v0 {
entry:
  %ref.tmp = alloca %"class.std::__cxx11::basic_string", align 8
  %ref.tmp2 = alloca %"class.std::allocator", align 1
  %conv = zext i32 %this.152.val to i64
  %call = tail call fastcc noundef zeroext i1 @_ZNK12_GLOBAL__N_120elim_small_bv_tactic6rw_cfg18max_steps_exceededEy(ptr noundef nonnull align 8 dereferenceable(120) %this.144.val, i64 noundef %conv)
  br i1 %call, label %if.then, label %if.end

if.then:                                          ; preds = %entry
  %exception = tail call ptr @__cxa_allocate_exception(i64 40) #15
  %0 = load ptr, ptr @_ZN11common_msgs15g_max_steps_msgE, align 8
  call void @_ZNSaIcEC1Ev(ptr noundef nonnull align 1 dereferenceable(1) %ref.tmp2) #15
  invoke void @_ZNSt7__cxx1112basic_stringIcSt11char_traitsIcESaIcEEC2IS3_EEPKcRKS3_(ptr noundef nonnull align 8 dereferenceable(32) %ref.tmp, ptr noundef %0, ptr noundef nonnull align 1 dereferenceable(1) %ref.tmp2)
          to label %invoke.cont unwind label %cleanup.action

invoke.cont:                                      ; preds = %if.then
  store ptr getelementptr inbounds ({ [6 x ptr] }, ptr @_ZTV17default_exception, i64 0, i32 0, i64 2), ptr %exception, align 8
  %m_msg.i.i = getelementptr inbounds i8, ptr %exception, i64 8
  call void @_ZNSt7__cxx1112basic_stringIcSt11char_traitsIcESaIcEEC1EOS4_(ptr noundef nonnull align 8 dereferenceable(32) %m_msg.i.i, ptr noundef nonnull align 8 dereferenceable(32) %ref.tmp) #15
  store ptr getelementptr inbounds ({ [6 x ptr] }, ptr @_ZTV18rewriter_exception, i64 0, i32 0, i64 2), ptr %exception, align 8
  invoke void @__cxa_throw(ptr nonnull %exception, ptr nonnull @_ZTI18rewriter_exception, ptr nonnull @_ZN18rewriter_exceptionD2Ev) #18
          to label %unreachable unwind label %ehcleanup

ehcleanup:                                        ; preds = %invoke.cont
  %1 = landingpad { ptr, i32 }
          cleanup
  call void @_ZNSt7__cxx1112basic_stringIcSt11char_traitsIcESaIcEED1Ev(ptr noundef nonnull align 8 dereferenceable(32) %ref.tmp) #15
  call void @_ZNSaIcED1Ev(ptr noundef nonnull align 1 dereferenceable(1) %ref.tmp2) #15
  br label %eh.resume

cleanup.action:                                   ; preds = %if.then
  %2 = landingpad { ptr, i32 }
          cleanup
  call void @_ZNSaIcED1Ev(ptr noundef nonnull align 1 dereferenceable(1) %ref.tmp2) #15
  call void @__cxa_free_exception(ptr %exception) #15
  br label %eh.resume

if.end:                                           ; preds = %entry
  ret void

eh.resume:                                        ; preds = %ehcleanup, %cleanup.action
  %.pn3 = phi { ptr, i32 } [ %1, %ehcleanup ], [ %2, %cleanup.action ]
  resume { ptr, i32 } %.pn3

unreachable:                                      ; preds = %invoke.cont
  unreachable
}